target datalayout = "e-m:e-p270:32:32-p271:32:32-p272:64:64-i64:64-i128:128-f80:128-n8:16:32:64-S128"
target triple = "x86_64-pc-linux-gnu"

%"struct.Assimp::COB::ChunkInfo" = type { i32, i32, i32, i32 }
%"class.Assimp::StreamReader" = type <{ %"class.std::shared_ptr", ptr, ptr, ptr, ptr, i8, [7 x i8] }>
%"class.std::shared_ptr" = type { %"class.std::__shared_ptr" }
%"class.std::__shared_ptr" = type { ptr, %"class.std::__shared_count" }
%"class.std::__shared_count" = type { ptr }
%"class.Assimp::chunk_guard" = type { ptr, ptr, i64 }
%"struct.Assimp::Intern::Getter.127" = type { i8 }
%"struct.Assimp::Intern::ByteSwapper.128" = type { i8 }

@_ZTI17DeadlyImportError = linkonce_odr constant { ptr, ptr, ptr } { ptr getelementptr inbounds (ptr, ptr @_ZTVN10__cxxabiv120__si_class_type_infoE, i64 2), ptr @_ZTS17DeadlyImportError, ptr @_ZTI15DeadlyErrorBase }, comdat, align 8
@.str.90 = private unnamed_addr constant [5 x i8] c"BitM\00", align 1
@.str.105 = private unnamed_addr constant [40 x i8] c"End of file or stream limit was reached\00", align 1
@.str.106 = private unnamed_addr constant [38 x i8] c"End of file or read limit was reached\00", align 1

; Function Attrs: mustprogress nounwind uwtable
define linkonce_odr hidden void @_ZN6Assimp6Intern11ByteSwapperIiLb0EEclEPi(ptr noundef nonnull align 1 dereferenceable(1) %0, ptr noundef %1) #3 comdat align 2 {
  %3 = alloca ptr, align 8
  %4 = alloca ptr, align 8
  store ptr %0, ptr %3, align 8
  store ptr %1, ptr %4, align 8
  ret void
}

; Function Attrs: mustprogress uwtable
define linkonce_odr hidden void @_ZN6Assimp6Intern6GetterILb0EiLb0EEclEPib(ptr noundef nonnull align 1 dereferenceable(1) %0, ptr noundef %1, i1 noundef zeroext %2) #1 comdat align 2 {
  %4 = alloca ptr, align 8
  %5 = alloca ptr, align 8
  %6 = alloca i8, align 1
  %7 = alloca %"struct.Assimp::Intern::ByteSwapper.128", align 1
  store ptr %0, ptr %4, align 8
  store ptr %1, ptr %5, align 8
  %8 = zext i1 %2 to i8
  store i8 %8, ptr %6, align 1
  call void @llvm.lifetime.start.p0(i64 1, ptr %7) #22
  %9 = load ptr, ptr %5, align 8
  call void @_ZN6Assimp6Intern11ByteSwapperIiLb0EEclEPi(ptr noundef nonnull align 1 dereferenceable(1) %7, ptr noundef %9)
  call void @llvm.lifetime.end.p0(i64 1, ptr %7) #22
  ret void
}

; Function Attrs: mustprogress uwtable
define linkonce_odr hidden noundef i32 @_ZN6Assimp12StreamReaderILb0ELb0EE3GetIiEET_v(ptr noundef nonnull align 8 dereferenceable(49) %0) #1 comdat align 2 personality ptr @__gxx_personality_v0 {
  %2 = alloca ptr, align 8
  %3 = alloca ptr, align 8
  %4 = alloca i32, align 4
  %5 = alloca i32, align 4
  %6 = alloca %"struct.Assimp::Intern::Getter.127", align 1
  store ptr %0, ptr %2, align 8
  %7 = load ptr, ptr %2, align 8
  %8 = getelementptr inbounds nuw %"class.Assimp::StreamReader", ptr %7, i32 0, i32 2
  %9 = load ptr, ptr %8, align 8
  %10 = getelementptr inbounds nuw i8, ptr %9, i64 4
  %11 = getelementptr inbounds nuw %"class.Assimp::StreamReader", ptr %7, i32 0, i32 4
  %12 = load ptr, ptr %11, align 8
  %13 = icmp ugt ptr %10, %12
  br i1 %13, label %14, label %21

14:                                               ; preds = %1
  %15 = call ptr @__cxa_allocate_exception(i64 16) #22
  invoke void @_ZN17DeadlyImportErrorC2EPKc(ptr noundef nonnull align 8 dereferenceable(16) %15, ptr noundef @.str.105)
          to label %16 unwind label %17

16:                                               ; preds = %14
  call void @__cxa_throw(ptr %15, ptr @_ZTI17DeadlyImportError, ptr @_ZNSt13runtime_errorD2Ev) #23
  unreachable

17:                                               ; preds = %14
  %18 = landingpad { ptr, i32 }
          cleanup
  %19 = extractvalue { ptr, i32 } %18, 0
  store ptr %19, ptr %3, align 8
  %20 = extractvalue { ptr, i32 } %18, 1
  store i32 %20, ptr %4, align 4
  call void @__cxa_free_exception(ptr %15) #22
  br label %31

21:                                               ; preds = %1
  call void @llvm.lifetime.start.p0(i64 4, ptr %5) #22
  %22 = getelementptr inbounds nuw %"class.Assimp::StreamReader", ptr %7, i32 0, i32 2
  %23 = load ptr, ptr %22, align 8
  call void @llvm.memcpy.p0.p0.i64(ptr align 4 %5, ptr align 1 %23, i64 4, i1 false)
  call void @llvm.lifetime.start.p0(i64 1, ptr %6) #22
  %24 = getelementptr inbounds nuw %"class.Assimp::StreamReader", ptr %7, i32 0, i32 5
  %25 = load i8, ptr %24, align 8, !range !6, !noundef !7
  %26 = trunc i8 %25 to i1
  call void @_ZN6Assimp6Intern6GetterILb0EiLb0EEclEPib(ptr noundef nonnull align 1 dereferenceable(1) %6, ptr noundef %5, i1 noundef zeroext %26)
  call void @llvm.lifetime.end.p0(i64 1, ptr %6) #22
  %27 = getelementptr inbounds nuw %"class.Assimp::StreamReader", ptr %7, i32 0, i32 2
  %28 = load ptr, ptr %27, align 8
  %29 = getelementptr inbounds nuw i8, ptr %28, i64 4
  store ptr %29, ptr %27, align 8
  %30 = load i32, ptr %5, align 4
  call void @llvm.lifetime.end.p0(i64 4, ptr %5) #22
  ret i32 %30

31:                                               ; preds = %17
  %32 = load ptr, ptr %3, align 8
  %33 = load i32, ptr %4, align 4
  %34 = insertvalue { ptr, i32 } poison, ptr %32, 0
  %35 = insertvalue { ptr, i32 } %34, i32 %33, 1
  resume { ptr, i32 } %35
}

; Function Attrs: mustprogress nounwind uwtable
define linkonce_odr hidden noundef i32 @_ZNK6Assimp12StreamReaderILb0ELb0EE13GetCurrentPosEv(ptr noundef nonnull align 8 dereferenceable(49) %0) #3 comdat align 2 {
  %2 = alloca ptr, align 8
  store ptr %0, ptr %2, align 8
  %3 = load ptr, ptr %2, align 8
  %4 = getelementptr inbounds nuw %"class.Assimp::StreamReader", ptr %3, i32 0, i32 2
  %5 = load ptr, ptr %4, align 8
  %6 = getelementptr inbounds nuw %"class.Assimp::StreamReader", ptr %3, i32 0, i32 1
  %7 = load ptr, ptr %6, align 8
  %8 = ptrtoint ptr %5 to i64
  %9 = ptrtoint ptr %7 to i64
  %10 = sub i64 %8, %9
  %11 = trunc i64 %10 to i32
  ret i32 %11
}

; Function Attrs: mustprogress uwtable
define linkonce_odr hidden void @_ZN6Assimp12StreamReaderILb0ELb0EE6IncPtrEl(ptr noundef nonnull align 8 dereferenceable(49) %0, i64 noundef %1) #1 comdat align 2 personality ptr @__gxx_personality_v0 {
  %3 = alloca ptr, align 8
  %4 = alloca i64, align 8
  %5 = alloca ptr, align 8
  %6 = alloca i32, align 4
  store ptr %0, ptr %3, align 8
  store i64 %1, ptr %4, align 8
  %7 = load ptr, ptr %3, align 8
  %8 = load i64, ptr %4, align 8
  %9 = getelementptr inbounds nuw %"class.Assimp::StreamReader", ptr %7, i32 0, i32 2
  %10 = load ptr, ptr %9, align 8
  %11 = getelementptr inbounds i8, ptr %10, i64 %8
  store ptr %11, ptr %9, align 8
  %12 = getelementptr inbounds nuw %"class.Assimp::StreamReader", ptr %7, i32 0, i32 2
  %13 = load ptr, ptr %12, align 8
  %14 = getelementptr inbounds nuw %"class.Assimp::StreamReader", ptr %7, i32 0, i32 4
  %15 = load ptr, ptr %14, align 8
  %16 = icmp ugt ptr %13, %15
  br i1 %16, label %17, label %24

17:                                               ; preds = %2
  %18 = call ptr @__cxa_allocate_exception(i64 16) #22
  invoke void @_ZN17DeadlyImportErrorC2EPKc(ptr noundef nonnull align 8 dereferenceable(16) %18, ptr noundef @.str.106)
          to label %19 unwind label %20

19:                                               ; preds = %17
  call void @__cxa_throw(ptr %18, ptr @_ZTI17DeadlyImportError, ptr @_ZNSt13runtime_errorD2Ev) #23
  unreachable

20:                                               ; preds = %17
  %21 = landingpad { ptr, i32 }
          cleanup
  %22 = extractvalue { ptr, i32 } %21, 0
  store ptr %22, ptr %5, align 8
  %23 = extractvalue { ptr, i32 } %21, 1
  store i32 %23, ptr %6, align 4
  call void @__cxa_free_exception(ptr %18) #22
  br label %25

24:                                               ; preds = %2
  ret void

25:                                               ; preds = %20
  %26 = load ptr, ptr %5, align 8
  %27 = load i32, ptr %6, align 4
  %28 = insertvalue { ptr, i32 } poison, ptr %26, 0
  %29 = insertvalue { ptr, i32 } %28, i32 %27, 1
  resume { ptr, i32 } %29
}

; Function Attrs: mustprogress uwtable
define linkonce_odr hidden noundef i32 @_ZN6Assimp12StreamReaderILb0ELb0EE5GetI4Ev(ptr noundef nonnull align 8 dereferenceable(49) %0) #1 comdat align 2 {
  %2 = alloca ptr, align 8
  store ptr %0, ptr %2, align 8
  %3 = load ptr, ptr %2, align 8
  %4 = call noundef i32 @_ZN6Assimp12StreamReaderILb0ELb0EE3GetIiEET_v(ptr noundef nonnull align 8 dereferenceable(49) %3)
  ret i32 %4
}

; Function Attrs: mustprogress uwtable
define linkonce_odr hidden void @_ZN6Assimp11chunk_guardC2ERKNS_3COB9ChunkInfoERNS_12StreamReaderILb0ELb0EEE(ptr noundef nonnull align 8 dereferenceable(24) %0, ptr noundef nonnull align 4 dereferenceable(16) %1, ptr noundef nonnull align 8 dereferenceable(49) %2) unnamed_addr #1 comdat align 2 {
  %4 = alloca ptr, align 8
  %5 = alloca ptr, align 8
  %6 = alloca ptr, align 8
  store ptr %0, ptr %4, align 8
  store ptr %1, ptr %5, align 8
  store ptr %2, ptr %6, align 8
  %7 = load ptr, ptr %4, align 8
  %8 = getelementptr inbounds nuw %"class.Assimp::chunk_guard", ptr %7, i32 0, i32 0
  %9 = load ptr, ptr %5, align 8
  store ptr %9, ptr %8, align 8
  %10 = getelementptr inbounds nuw %"class.Assimp::chunk_guard", ptr %7, i32 0, i32 1
  %11 = load ptr, ptr %6, align 8
  store ptr %11, ptr %10, align 8
  %12 = getelementptr inbounds nuw %"class.Assimp::chunk_guard", ptr %7, i32 0, i32 2
  %13 = load ptr, ptr %6, align 8
  %14 = call noundef i32 @_ZNK6Assimp12StreamReaderILb0ELb0EE13GetCurrentPosEv(ptr noundef nonnull align 8 dereferenceable(49) %13)
  %15 = sext i32 %14 to i64
  store i64 %15, ptr %12, align 8
  ret void
}

; Function Attrs: mustprogress uwtable
define hidden void @_ZN6Assimp11COBImporter15ReadBitM_BinaryERNS_3COB5SceneERNS_12StreamReaderILb0ELb0EEERKNS1_9ChunkInfoE(ptr noundef nonnull align 8 dereferenceable(72) %0, ptr noundef nonnull align 8 dereferenceable(160) %1, ptr noundef nonnull align 8 dereferenceable(49) %2, ptr noundef nonnull align 4 dereferenceable(16) %3) #1 align 2 personality ptr @__gxx_personality_v0 {
  %5 = alloca ptr, align 8
  %6 = alloca ptr, align 8
  %7 = alloca ptr, align 8
  %8 = alloca ptr, align 8
  %9 = alloca %"class.Assimp::chunk_guard", align 8
  %10 = alloca i32, align 4
  %11 = alloca ptr, align 8
  %12 = alloca i32, align 4
  store ptr %0, ptr %5, align 8
  store ptr %1, ptr %6, align 8
  store ptr %2, ptr %7, align 8
  store ptr %3, ptr %8, align 8
  %13 = load ptr, ptr %5, align 8
  %14 = load ptr, ptr %8, align 8
  %15 = getelementptr inbounds nuw %"struct.Assimp::COB::ChunkInfo", ptr %14, i32 0, i32 2
  %16 = load i32, ptr %15, align 4
  %17 = icmp ugt i32 %16, 1
  br i1 %17, label %18, label %21

18:                                               ; preds = %4
  %19 = load ptr, ptr %7, align 8
  %20 = load ptr, ptr %8, align 8
  call void @_ZN6Assimp11COBImporter23UnsupportedChunk_BinaryERNS_12StreamReaderILb0ELb0EEERKNS_3COB9ChunkInfoEPKc(ptr noundef nonnull align 8 dereferenceable(72) %13, ptr noundef nonnull align 8 dereferenceable(49) %19, ptr noundef nonnull align 4 dereferenceable(16) %20, ptr noundef @.str.90)
  br label %40

21:                                               ; preds = %4
  call void @llvm.lifetime.start.p0(i64 24, ptr %9) #22
  %22 = load ptr, ptr %8, align 8
  %23 = load ptr, ptr %7, align 8
  call void @_ZN6Assimp11chunk_guardC2ERKNS_3COB9ChunkInfoERNS_12StreamReaderILb0ELb0EEE(ptr noundef nonnull align 8 dereferenceable(24) %9, ptr noundef nonnull align 4 dereferenceable(16) %22, ptr noundef nonnull align 8 dereferenceable(49) %23)
  call void @llvm.lifetime.start.p0(i64 4, ptr %10) #22
  %24 = load ptr, ptr %7, align 8
  %25 = invoke noundef i32 @_ZN6Assimp12StreamReaderILb0ELb0EE5GetI4Ev(ptr noundef nonnull align 8 dereferenceable(49) %24)
          to label %26 unwind label %41

26:                                               ; preds = %21
  store i32 %25, ptr %10, align 4
  %27 = load ptr, ptr %7, align 8
  %28 = load i32, ptr %10, align 4
  %29 = zext i32 %28 to i64
  invoke void @_ZN6Assimp12StreamReaderILb0ELb0EE6IncPtrEl(ptr noundef nonnull align 8 dereferenceable(49) %27, i64 noundef %29)
          to label %30 unwind label %41

30:                                               ; preds = %26
  %31 = load ptr, ptr %7, align 8
  %32 = invoke noundef i32 @_ZN6Assimp12StreamReaderILb0ELb0EE5GetI4Ev(ptr noundef nonnull align 8 dereferenceable(49) %31)
          to label %33 unwind label %41

33:                                               ; preds = %30
  %34 = load ptr, ptr %7, align 8
  %35 = load ptr, ptr %7, align 8
  %36 = invoke noundef i32 @_ZN6Assimp12StreamReaderILb0ELb0EE5GetI4Ev(ptr noundef nonnull align 8 dereferenceable(49) %35)
          to label %37 unwind label %41

37:                                               ; preds = %33
  %38 = sext i32 %36 to i64
  invoke void @_ZN6Assimp12StreamReaderILb0ELb0EE6IncPtrEl(ptr noundef nonnull align 8 dereferenceable(49) %34, i64 noundef %38)
          to label %39 unwind label %41

39:                                               ; preds = %37
  call void @llvm.lifetime.end.p0(i64 4, ptr %10) #22
  call void @_ZN6Assimp11chunk_guardD2Ev(ptr noundef nonnull align 8 dereferenceable(24) %9) #22
  call void @llvm.lifetime.end.p0(i64 24, ptr %9) #22
  br label %40

40:                                               ; preds = %39, %18
  ret void

41:                                               ; preds = %37, %33, %30, %26, %21
  %42 = landingpad { ptr, i32 }
          cleanup
  %43 = extractvalue { ptr, i32 } %42, 0
  store ptr %43, ptr %11, align 8
  %44 = extractvalue { ptr, i32 } %42, 1
  store i32 %44, ptr %12, align 4
  call void @llvm.lifetime.end.p0(i64 4, ptr %10) #22
  call void @_ZN6Assimp11chunk_guardD2Ev(ptr noundef nonnull align 8 dereferenceable(24) %9) #22
  call void @llvm.lifetime.end.p0(i64 24, ptr %9) #22
  br label %45

45:                                               ; preds = %41
  %46 = load ptr, ptr %11, align 8
  %47 = load i32, ptr %12, align 4
  %48 = insertvalue { ptr, i32 } poison, ptr %46, 0
  %49 = insertvalue { ptr, i32 } %48, i32 %47, 1
  resume { ptr, i32 } %49
}