; Function Attrs: mustprogress uwtable
define hidden void @_ZN6Assimp11COBImporter15ReadBitM_BinaryERNS_3COB5SceneERNS_12StreamReaderILb0ELb0EEERKNS1_9ChunkInfoE(ptr nonnull readnone align 8 captures(none) %0, ptr nonnull readnone align 8 captures(none) %1, ptr noundef nonnull align 8 dereferenceable(49) %2, ptr noundef nonnull align 4 dereferenceable(16) %3) local_unnamed_addr #0 align 2 personality ptr @__gxx_personality_v0 {
  %5 = alloca %"class.Assimp::chunk_guard", align 8
  %6 = getelementptr inbounds nuw i8, ptr %3, i64 8
  %7 = load i32, ptr %6, align 4
  %8 = icmp ugt i32 %7, 1
  br i1 %8, label %9, label %10

9:                                                ; preds = %4
  tail call void @_ZN6Assimp11COBImporter23UnsupportedChunk_BinaryERNS_12StreamReaderILb0ELb0EEERKNS_3COB9ChunkInfoEPKc(ptr nonnull align 8 poison, ptr noundef nonnull align 8 dereferenceable(49) %2, ptr noundef nonnull align 4 dereferenceable(16) %3, ptr noundef nonnull @.str.90)
  br label %61

10:                                               ; preds = %4
  call void @llvm.lifetime.start.p0(i64 24, ptr nonnull %5) #27
  store ptr %3, ptr %5, align 8
  %11 = getelementptr inbounds nuw i8, ptr %5, i64 8
  store ptr %2, ptr %11, align 8
  %12 = getelementptr inbounds nuw i8, ptr %5, i64 16
  %13 = getelementptr inbounds nuw i8, ptr %2, i64 24
  %14 = load ptr, ptr %13, align 8
  %15 = getelementptr inbounds nuw i8, ptr %2, i64 16
  %16 = load ptr, ptr %15, align 8
  %17 = ptrtoint ptr %14 to i64
  %18 = ptrtoint ptr %16 to i64
  %19 = sub i64 %17, %18
  %sext.i = shl i64 %19, 32
  %20 = ashr exact i64 %sext.i, 32
  store i64 %20, ptr %12, align 8
  %21 = getelementptr inbounds nuw i8, ptr %14, i64 4
  %22 = getelementptr inbounds nuw i8, ptr %2, i64 40
  %23 = load ptr, ptr %22, align 8
  %24 = icmp ugt ptr %21, %23
  br i1 %24, label %25, label %29

25:                                               ; preds = %10
  %26 = tail call ptr @__cxa_allocate_exception(i64 16) #27
  invoke void @_ZN17DeadlyImportErrorC2EPKc(ptr noundef nonnull align 8 dereferenceable(16) %26, ptr noundef nonnull @.str.105)
          to label %.invoke unwind label %27

27:                                               ; preds = %25
  %28 = landingpad { ptr, i32 }
          cleanup
  tail call void @__cxa_free_exception(ptr nonnull %26) #27
  br label %.body

29:                                               ; preds = %10
  %30 = load i32, ptr %14, align 1
  %31 = zext i32 %30 to i64
  %32 = getelementptr inbounds nuw i8, ptr %21, i64 %31
  store ptr %32, ptr %13, align 8
  %33 = icmp ugt ptr %32, %23
  br i1 %33, label %34, label %_ZN6Assimp12StreamReaderILb0ELb0EE6IncPtrEl.exit

34:                                               ; preds = %29
  %35 = tail call ptr @__cxa_allocate_exception(i64 16) #27
  invoke void @_ZN17DeadlyImportErrorC2EPKc(ptr noundef nonnull align 8 dereferenceable(16) %35, ptr noundef nonnull @.str.106)
          to label %.invoke unwind label %36

36:                                               ; preds = %34
  %37 = landingpad { ptr, i32 }
          cleanup
  tail call void @__cxa_free_exception(ptr nonnull %35) #27
  br label %.body

_ZN6Assimp12StreamReaderILb0ELb0EE6IncPtrEl.exit: ; preds = %29
  %38 = getelementptr inbounds nuw i8, ptr %32, i64 4
  %39 = icmp ugt ptr %38, %23
  br i1 %39, label %40, label %44

40:                                               ; preds = %_ZN6Assimp12StreamReaderILb0ELb0EE6IncPtrEl.exit
  %41 = tail call ptr @__cxa_allocate_exception(i64 16) #27
  invoke void @_ZN17DeadlyImportErrorC2EPKc(ptr noundef nonnull align 8 dereferenceable(16) %41, ptr noundef nonnull @.str.105)
          to label %.invoke unwind label %42

42:                                               ; preds = %40
  %43 = landingpad { ptr, i32 }
          cleanup
  tail call void @__cxa_free_exception(ptr nonnull %41) #27
  br label %.body

44:                                               ; preds = %_ZN6Assimp12StreamReaderILb0ELb0EE6IncPtrEl.exit
  store ptr %38, ptr %13, align 8
  %45 = getelementptr inbounds nuw i8, ptr %32, i64 8
  %46 = icmp ugt ptr %45, %23
  br i1 %46, label %47, label %51

47:                                               ; preds = %44
  %48 = tail call ptr @__cxa_allocate_exception(i64 16) #27
  invoke void @_ZN17DeadlyImportErrorC2EPKc(ptr noundef nonnull align 8 dereferenceable(16) %48, ptr noundef nonnull @.str.105)
          to label %.invoke unwind label %49

49:                                               ; preds = %47
  %50 = landingpad { ptr, i32 }
          cleanup
  tail call void @__cxa_free_exception(ptr nonnull %48) #27
  br label %.body

51:                                               ; preds = %44
  %52 = load i32, ptr %38, align 1
  %53 = sext i32 %52 to i64
  %54 = getelementptr inbounds i8, ptr %45, i64 %53
  store ptr %54, ptr %13, align 8
  %55 = icmp ugt ptr %54, %23
  br i1 %55, label %56, label %_ZN6Assimp12StreamReaderILb0ELb0EE6IncPtrEl.exit27

56:                                               ; preds = %51
  %57 = tail call ptr @__cxa_allocate_exception(i64 16) #27
  invoke void @_ZN17DeadlyImportErrorC2EPKc(ptr noundef nonnull align 8 dereferenceable(16) %57, ptr noundef nonnull @.str.106)
          to label %.invoke unwind label %59

.invoke:                                          ; preds = %56, %47, %40, %34, %25
  %58 = phi ptr [ %26, %25 ], [ %35, %34 ], [ %41, %40 ], [ %48, %47 ], [ %57, %56 ]
  invoke void @__cxa_throw(ptr nonnull %58, ptr nonnull @_ZTI17DeadlyImportError, ptr nonnull @_ZNSt13runtime_errorD2Ev) #28
          to label %.cont unwind label %62

.cont:                                            ; preds = %.invoke
  unreachable

59:                                               ; preds = %56
  %60 = landingpad { ptr, i32 }
          cleanup
  tail call void @__cxa_free_exception(ptr nonnull %57) #27
  br label %.body

_ZN6Assimp12StreamReaderILb0ELb0EE6IncPtrEl.exit27: ; preds = %51
  call void @_ZN6Assimp11chunk_guardD2Ev(ptr noundef nonnull align 8 dereferenceable(24) %5) #27
  call void @llvm.lifetime.end.p0(i64 24, ptr nonnull %5) #27
  br label %61

61:                                               ; preds = %_ZN6Assimp12StreamReaderILb0ELb0EE6IncPtrEl.exit27, %9
  ret void

62:                                               ; preds = %.invoke
  %63 = landingpad { ptr, i32 }
          cleanup
  br label %.body

.body:                                            ; preds = %36, %49, %59, %62, %42, %27
  %eh.lpad-body = phi { ptr, i32 } [ %28, %27 ], [ %37, %36 ], [ %43, %42 ], [ %50, %49 ], [ %63, %62 ], [ %60, %59 ]
  call void @_ZN6Assimp11chunk_guardD2Ev(ptr noundef nonnull align 8 dereferenceable(24) %5) #27
  call void @llvm.lifetime.end.p0(i64 24, ptr nonnull %5) #27
  resume { ptr, i32 } %eh.lpad-body
}